; Function Attrs: mustprogress uwtable
define void @_ZN8QuantLib9CdsHelper6updateEv(ptr noundef nonnull align 8 dereferenceable(488) %this) unnamed_addr #8 align 2 {
entry:
  tail call void @_ZN8QuantLib27RelativeDateBootstrapHelperINS_31DefaultProbabilityTermStructureEE6updateEv(ptr noundef nonnull align 8 dereferenceable(184) %this)
  %vtable = load ptr, ptr %this, align 8, !tbaa !28
  %vfn = getelementptr inbounds i8, ptr %vtable, i64 104
  %0 = load ptr, ptr %vfn, align 8
  tail call void %0(ptr noundef nonnull align 8 dereferenceable(488) %this)
  ret void
}